; Function Attrs: mustprogress nounwind uwtable
define hidden void @_ZN2cv10PxMDecoderD0Ev(ptr noundef nonnull align 8 dereferenceable(1472) %0) unnamed_addr #4 align 2 personality ptr @__gxx_personality_v0 {
  %2 = getelementptr inbounds nuw i8, ptr %0, i64 368
  invoke void @_ZN2cv11RBaseStream5closeEv(ptr noundef nonnull align 8 dereferenceable(57) %2)
          to label %_ZN2cv10PxMDecoderD2Ev.exit unwind label %3

3:                                                ; preds = %1
  %4 = landingpad { ptr, i32 }
          catch ptr null
  %5 = extractvalue { ptr, i32 } %4, 0
  tail call void @__clang_call_terminate(ptr %5) #27
  unreachable

_ZN2cv10PxMDecoderD2Ev.exit:                      ; preds = %1
  tail call void @_ZN2cv12RLByteStreamD1Ev(ptr noundef nonnull align 8 dereferenceable(57) %2) #25
  tail call void @_ZN2cv16BaseImageDecoderD2Ev(ptr noundef nonnull align 8 dereferenceable(1472) %0) #25
  tail call void @_ZdlPv(ptr noundef nonnull %0) #26
  ret void
}